target datalayout = "e-m:e-p270:32:32-p271:32:32-p272:64:64-i64:64-i128:128-f80:128-n8:16:32:64-S128"
target triple = "x86_64-pc-linux-gnu"

%"class.absl::BlockingCounter" = type <{ %"class.absl::Mutex", %"struct.std::atomic.0", i32, i8, [7 x i8] }>
%"class.absl::Mutex" = type { %"struct.std::atomic" }
%"struct.std::atomic" = type { %"struct.std::__atomic_base" }
%"struct.std::__atomic_base" = type { i64 }
%"struct.std::atomic.0" = type { %"struct.std::__atomic_base.1" }
%"struct.std::__atomic_base.1" = type { i32 }
%"class.absl::MutexLock" = type { ptr }
%"class.absl::Condition" = type { [16 x i8], ptr, ptr }
%"class.absl::synchronization_internal::KernelTimeout" = type { i64 }

@.str = private unnamed_addr constant [140 x i8] c"generated/home/dtcxzyw/WorkSpace/Projects/compilers/llvm-opt-benchmark/bench/abseil-cpp/abseil-cpp/absl/synchronization/blocking_counter.cc\00", align 1
@.str.1 = private unnamed_addr constant [20 x i8] c"Check %s failed: %s\00", align 1
@.str.6 = private unnamed_addr constant [18 x i8] c"num_waiting_ == 0\00", align 1
@.str.7 = private unnamed_addr constant [31 x i8] c"multiple threads called Wait()\00", align 1

; Function Attrs: mustprogress nounwind uwtable
define linkonce_odr dso_local void @_ZN4absl24synchronization_internal13KernelTimeoutC2Ev(ptr noundef nonnull align 8 dereferenceable(8) %0) unnamed_addr #2 comdat align 2 {
  %2 = alloca ptr, align 8
  store ptr %0, ptr %2, align 8, !tbaa !50
  %3 = load ptr, ptr %2, align 8
  %4 = getelementptr inbounds nuw %"class.absl::synchronization_internal::KernelTimeout", ptr %3, i32 0, i32 0
  store i64 -1, ptr %4, align 8, !tbaa !52
  ret void
}

; Function Attrs: mustprogress uwtable
define linkonce_odr dso_local i64 @_ZN4absl24synchronization_internal13KernelTimeout5NeverEv() #0 comdat align 2 {
  %1 = alloca %"class.absl::synchronization_internal::KernelTimeout", align 8
  call void @_ZN4absl24synchronization_internal13KernelTimeoutC2Ev(ptr noundef nonnull align 8 dereferenceable(8) %1)
  %2 = getelementptr inbounds nuw %"class.absl::synchronization_internal::KernelTimeout", ptr %1, i32 0, i32 0
  %3 = load i64, ptr %2, align 8
  ret i64 %3
}

; Function Attrs: inlinehint mustprogress uwtable
define linkonce_odr dso_local void @_ZN4absl13base_internal13TraceContinueEPKvNS0_10ObjectKindE(ptr noundef %0, i32 noundef %1) #7 comdat {
  %3 = alloca ptr, align 8
  %4 = alloca i32, align 4
  store ptr %0, ptr %3, align 8, !tbaa !31
  store i32 %1, ptr %4, align 4, !tbaa !32
  %5 = load ptr, ptr %3, align 8, !tbaa !31
  %6 = load i32, ptr %4, align 4, !tbaa !32
  call void @AbslInternalTraceContinue(ptr noundef %5, i32 noundef %6)
  ret void
}

; Function Attrs: mustprogress nounwind uwtable
define linkonce_odr dso_local void @_ZN4absl9MutexLockD2Ev(ptr noundef nonnull align 8 dereferenceable(8) %0) unnamed_addr #2 comdat align 2 personality ptr @__gxx_personality_v0 {
  %2 = alloca ptr, align 8
  store ptr %0, ptr %2, align 8, !tbaa !34
  %3 = load ptr, ptr %2, align 8
  %4 = getelementptr inbounds nuw %"class.absl::MutexLock", ptr %3, i32 0, i32 0
  %5 = load ptr, ptr %4, align 8, !tbaa !36
  invoke void @_ZN4absl5Mutex6UnlockEv(ptr noundef nonnull align 8 dereferenceable(8) %5)
          to label %6 unwind label %7

6:                                                ; preds = %1
  ret void

7:                                                ; preds = %1
  %8 = landingpad { ptr, i32 }
          catch ptr null
  %9 = extractvalue { ptr, i32 } %8, 0
  call void @__clang_call_terminate(ptr %9) #10
  unreachable
}

; Function Attrs: mustprogress uwtable
define linkonce_odr dso_local void @_ZN4absl5Mutex5AwaitERKNS_9ConditionE(ptr noundef nonnull align 8 dereferenceable(8) %0, ptr noundef nonnull align 8 dereferenceable(32) %1) #0 comdat align 2 {
  %3 = alloca ptr, align 8
  %4 = alloca ptr, align 8
  %5 = alloca %"class.absl::synchronization_internal::KernelTimeout", align 8
  store ptr %0, ptr %3, align 8, !tbaa !23
  store ptr %1, ptr %4, align 8, !tbaa !38
  %6 = load ptr, ptr %3, align 8
  %7 = load ptr, ptr %4, align 8, !tbaa !38
  %8 = call i64 @_ZN4absl24synchronization_internal13KernelTimeout5NeverEv()
  %9 = getelementptr inbounds nuw %"class.absl::synchronization_internal::KernelTimeout", ptr %5, i32 0, i32 0
  store i64 %8, ptr %9, align 8
  %10 = getelementptr inbounds nuw %"class.absl::synchronization_internal::KernelTimeout", ptr %5, i32 0, i32 0
  %11 = load i64, ptr %10, align 8
  %12 = call noundef zeroext i1 @_ZN4absl5Mutex11AwaitCommonERKNS_9ConditionENS_24synchronization_internal13KernelTimeoutE(ptr noundef nonnull align 8 dereferenceable(8) %6, ptr noundef nonnull align 8 dereferenceable(32) %7, i64 %11)
  ret void
}

; Function Attrs: mustprogress uwtable
define linkonce_odr dso_local void @_ZN4absl9MutexLockC2EPNS_5MutexE(ptr noundef nonnull align 8 dereferenceable(8) %0, ptr noundef %1) unnamed_addr #0 comdat align 2 {
  %3 = alloca ptr, align 8
  %4 = alloca ptr, align 8
  store ptr %0, ptr %3, align 8, !tbaa !34
  store ptr %1, ptr %4, align 8, !tbaa !23
  %5 = load ptr, ptr %3, align 8
  %6 = getelementptr inbounds nuw %"class.absl::MutexLock", ptr %5, i32 0, i32 0
  %7 = load ptr, ptr %4, align 8, !tbaa !23
  store ptr %7, ptr %6, align 8, !tbaa !36
  %8 = getelementptr inbounds nuw %"class.absl::MutexLock", ptr %5, i32 0, i32 0
  %9 = load ptr, ptr %8, align 8, !tbaa !36
  call void @_ZN4absl5Mutex4LockEv(ptr noundef nonnull align 8 dereferenceable(8) %9)
  ret void
}

; Function Attrs: inlinehint mustprogress uwtable
define linkonce_odr dso_local void @_ZN4absl13base_internal9TraceWaitEPKvNS0_10ObjectKindE(ptr noundef %0, i32 noundef %1) #7 comdat {
  %3 = alloca ptr, align 8
  %4 = alloca i32, align 4
  store ptr %0, ptr %3, align 8, !tbaa !31
  store i32 %1, ptr %4, align 4, !tbaa !32
  %5 = load ptr, ptr %3, align 8, !tbaa !31
  %6 = load i32, ptr %4, align 4, !tbaa !32
  call void @AbslInternalTraceWait(ptr noundef %5, i32 noundef %6)
  ret void
}

; Function Attrs: inlinehint mustprogress nounwind uwtable
define linkonce_odr dso_local noundef i32 @_ZN4absl15BlockingCounter15TraceObjectKindEv() #1 comdat align 2 {
  ret i32 1
}

; Function Attrs: mustprogress uwtable
define dso_local void @_ZN4absl15BlockingCounter4WaitEv(ptr noundef nonnull align 8 dereferenceable(17) %0) #0 align 2 personality ptr @__gxx_personality_v0 {
  %2 = alloca ptr, align 8
  %3 = alloca %"class.absl::MutexLock", align 8
  %4 = alloca ptr, align 8
  %5 = alloca ptr, align 8
  %6 = alloca i32, align 4
  %7 = alloca %"class.absl::Condition", align 8
  store ptr %0, ptr %2, align 8, !tbaa !4
  %8 = load ptr, ptr %2, align 8
  %9 = call noundef i32 @_ZN4absl15BlockingCounter15TraceObjectKindEv()
  call void @_ZN4absl13base_internal9TraceWaitEPKvNS0_10ObjectKindE(ptr noundef %8, i32 noundef %9)
  call void @llvm.lifetime.start.p0(i64 8, ptr %3) #9
  %10 = getelementptr inbounds nuw %"class.absl::BlockingCounter", ptr %8, i32 0, i32 0
  call void @_ZN4absl9MutexLockC2EPNS_5MutexE(ptr noundef nonnull align 8 dereferenceable(8) %3, ptr noundef %10)
  br label %11

11:                                               ; preds = %1
  %12 = getelementptr inbounds nuw %"class.absl::BlockingCounter", ptr %8, i32 0, i32 2
  %13 = load i32, ptr %12, align 4, !tbaa !11
  %14 = icmp eq i32 %13, 0
  %15 = xor i1 %14, true
  %16 = zext i1 %15 to i64
  %17 = call i64 @llvm.expect.i64(i64 %16, i64 0)
  %18 = icmp ne i64 %17, 0
  br i1 %18, label %19, label %31

19:                                               ; preds = %11
  br label %20

20:                                               ; preds = %19
  call void @llvm.lifetime.start.p0(i64 8, ptr %4) #9
  store ptr getelementptr (i8, ptr @.str, i64 120), ptr %4, align 8, !tbaa !21
  invoke void (i32, ptr, i32, ptr, ...) @_ZN4absl16raw_log_internal6RawLogENS_11LogSeverityEPKciS3_z(i32 noundef 3, ptr noundef getelementptr (i8, ptr @.str, i64 120), i32 noundef 59, ptr noundef @.str.1, ptr noundef @.str.6, ptr noundef @.str.7)
          to label %21 unwind label %23

21:                                               ; preds = %20
  br label %22

22:                                               ; preds = %21
  unreachable

23:                                               ; preds = %20
  %24 = landingpad { ptr, i32 }
          cleanup
  %25 = extractvalue { ptr, i32 } %24, 0
  store ptr %25, ptr %5, align 8
  %26 = extractvalue { ptr, i32 } %24, 1
  store i32 %26, ptr %6, align 4
  call void @llvm.lifetime.end.p0(i64 8, ptr %4) #9
  br label %46

27:                                               ; No predecessors!
  br label %28

28:                                               ; preds = %27
  call void @llvm.lifetime.end.p0(i64 8, ptr %4) #9
  br label %29

29:                                               ; preds = %28
  br label %30

30:                                               ; preds = %29
  br label %31

31:                                               ; preds = %30, %11
  br label %32

32:                                               ; preds = %31
  br label %33

33:                                               ; preds = %32
  %34 = getelementptr inbounds nuw %"class.absl::BlockingCounter", ptr %8, i32 0, i32 2
  %35 = load i32, ptr %34, align 4, !tbaa !11
  %36 = add nsw i32 %35, 1
  store i32 %36, ptr %34, align 4, !tbaa !11
  %37 = getelementptr inbounds nuw %"class.absl::BlockingCounter", ptr %8, i32 0, i32 0
  call void @llvm.lifetime.start.p0(i64 32, ptr %7) #9
  %38 = getelementptr inbounds nuw %"class.absl::BlockingCounter", ptr %8, i32 0, i32 3
  invoke void @_ZN4absl9ConditionC1EPFbPvES1_(ptr noundef nonnull align 8 dereferenceable(32) %7, ptr noundef @_ZN4absl12_GLOBAL__N_16IsDoneEPv, ptr noundef %38)
          to label %39 unwind label %42

39:                                               ; preds = %33
  invoke void @_ZN4absl5Mutex5AwaitERKNS_9ConditionE(ptr noundef nonnull align 8 dereferenceable(8) %37, ptr noundef nonnull align 8 dereferenceable(32) %7)
          to label %40 unwind label %42

40:                                               ; preds = %39
  call void @llvm.lifetime.end.p0(i64 32, ptr %7) #9
  call void @_ZN4absl9MutexLockD2Ev(ptr noundef nonnull align 8 dereferenceable(8) %3) #9
  call void @llvm.lifetime.end.p0(i64 8, ptr %3) #9
  %41 = call noundef i32 @_ZN4absl15BlockingCounter15TraceObjectKindEv()
  call void @_ZN4absl13base_internal13TraceContinueEPKvNS0_10ObjectKindE(ptr noundef %8, i32 noundef %41)
  ret void

42:                                               ; preds = %39, %33
  %43 = landingpad { ptr, i32 }
          cleanup
  %44 = extractvalue { ptr, i32 } %43, 0
  store ptr %44, ptr %5, align 8
  %45 = extractvalue { ptr, i32 } %43, 1
  store i32 %45, ptr %6, align 4
  call void @llvm.lifetime.end.p0(i64 32, ptr %7) #9
  br label %46

46:                                               ; preds = %42, %23
  call void @_ZN4absl9MutexLockD2Ev(ptr noundef nonnull align 8 dereferenceable(8) %3) #9
  call void @llvm.lifetime.end.p0(i64 8, ptr %3) #9
  br label %47

47:                                               ; preds = %46
  %48 = load ptr, ptr %5, align 8
  %49 = load i32, ptr %6, align 4
  %50 = insertvalue { ptr, i32 } poison, ptr %48, 0
  %51 = insertvalue { ptr, i32 } %50, i32 %49, 1
  resume { ptr, i32 } %51
}