; Function Attrs: mustprogress uwtable
define dso_local void @_ZN4absl15BlockingCounter4WaitEv(ptr noundef nonnull align 8 dereferenceable(17) %0) local_unnamed_addr #0 align 2 personality ptr @__gxx_personality_v0 {
  %2 = alloca %"class.absl::Condition", align 8
  tail call void @AbslInternalTraceWait(ptr noundef nonnull %0, i32 noundef 1)
  tail call void @_ZN4absl5Mutex4LockEv(ptr noundef nonnull align 8 dereferenceable(8) %0)
  %3 = getelementptr inbounds nuw i8, ptr %0, i64 12
  %4 = load i32, ptr %3, align 4, !tbaa !12
  %.not = icmp eq i32 %4, 0
  br i1 %.not, label %9, label %5, !prof !20

5:                                                ; preds = %1
  invoke void (i32, ptr, i32, ptr, ...) @_ZN4absl16raw_log_internal6RawLogENS_11LogSeverityEPKciS3_z(i32 noundef 3, ptr noundef nonnull getelementptr inbounds nuw (i8, ptr @.str, i64 120), i32 noundef 59, ptr noundef nonnull @.str.1, ptr noundef nonnull @.str.6, ptr noundef nonnull @.str.7)
          to label %6 unwind label %7

6:                                                ; preds = %5
  unreachable

7:                                                ; preds = %5
  %8 = landingpad { ptr, i32 }
          cleanup
  br label %18

9:                                                ; preds = %1
  store i32 1, ptr %3, align 4, !tbaa !12
  call void @llvm.lifetime.start.p0(i64 32, ptr nonnull %2) #7
  %10 = getelementptr inbounds nuw i8, ptr %0, i64 16
  invoke void @_ZN4absl9ConditionC1EPFbPvES1_(ptr noundef nonnull align 8 dereferenceable(32) %2, ptr noundef nonnull @_ZN4absl12_GLOBAL__N_16IsDoneEPv, ptr noundef nonnull %10)
          to label %11 unwind label %16

11:                                               ; preds = %9
  %12 = invoke noundef zeroext i1 @_ZN4absl5Mutex11AwaitCommonERKNS_9ConditionENS_24synchronization_internal13KernelTimeoutE(ptr noundef nonnull align 8 dereferenceable(8) %0, ptr noundef nonnull align 8 dereferenceable(32) %2, i64 -1)
          to label %_ZN4absl5Mutex5AwaitERKNS_9ConditionE.exit unwind label %16

_ZN4absl5Mutex5AwaitERKNS_9ConditionE.exit:       ; preds = %11
  call void @llvm.lifetime.end.p0(i64 32, ptr nonnull %2) #7
  invoke void @_ZN4absl5Mutex6UnlockEv(ptr noundef nonnull align 8 dereferenceable(8) %0)
          to label %_ZN4absl9MutexLockD2Ev.exit unwind label %13

13:                                               ; preds = %_ZN4absl5Mutex5AwaitERKNS_9ConditionE.exit
  %14 = landingpad { ptr, i32 }
          catch ptr null
  %15 = extractvalue { ptr, i32 } %14, 0
  call void @__clang_call_terminate(ptr %15) #6
  unreachable

_ZN4absl9MutexLockD2Ev.exit:                      ; preds = %_ZN4absl5Mutex5AwaitERKNS_9ConditionE.exit
  call void @AbslInternalTraceContinue(ptr noundef nonnull %0, i32 noundef 1)
  ret void

16:                                               ; preds = %11, %9
  %17 = landingpad { ptr, i32 }
          cleanup
  call void @llvm.lifetime.end.p0(i64 32, ptr nonnull %2) #7
  br label %18

18:                                               ; preds = %16, %7
  %.pn = phi { ptr, i32 } [ %8, %7 ], [ %17, %16 ]
  invoke void @_ZN4absl5Mutex6UnlockEv(ptr noundef nonnull align 8 dereferenceable(8) %0)
          to label %_ZN4absl9MutexLockD2Ev.exit4 unwind label %19

19:                                               ; preds = %18
  %20 = landingpad { ptr, i32 }
          catch ptr null
  %21 = extractvalue { ptr, i32 } %20, 0
  call void @__clang_call_terminate(ptr %21) #6
  unreachable

_ZN4absl9MutexLockD2Ev.exit4:                     ; preds = %18
  resume { ptr, i32 } %.pn
}